target datalayout = "e-m:e-p270:32:32-p271:32:32-p272:64:64-i64:64-i128:128-f80:128-n8:16:32:64-S128"
target triple = "x86_64-pc-linux-gnu"

%struct._lv_obj_t = type { ptr, ptr, ptr, ptr, ptr, %struct.lv_area_t, i32, i16, i16 }
%struct.lv_area_t = type { i32, i32, i32, i32 }
%struct._lv_obj_spec_attr_t = type { ptr, ptr, %struct.lv_event_list_t, %struct.lv_point_t, i32, i32, i16, i16 }
%struct.lv_event_list_t = type { %struct._lv_array_t, i8 }
%struct._lv_array_t = type { ptr, i32, i32, i32, i8 }
%struct.lv_point_t = type { i32, i32 }
%union.lv_style_value_t = type { ptr }

; Function Attrs: inlinehint nounwind uwtable
define internal i32 @lv_obj_get_style_pad_left(ptr noundef %0, i32 noundef %1) #3 {
  %3 = alloca ptr, align 8
  %4 = alloca i32, align 4
  %5 = alloca %union.lv_style_value_t, align 8
  store ptr %0, ptr %3, align 8, !tbaa !3
  store i32 %1, ptr %4, align 4, !tbaa !7
  call void @llvm.lifetime.start.p0(i64 8, ptr %5) #5
  %6 = load ptr, ptr %3, align 8, !tbaa !3
  %7 = load i32, ptr %4, align 4, !tbaa !7
  %8 = call ptr @lv_obj_get_style_prop(ptr noundef %6, i32 noundef %7, i8 noundef zeroext 18)
  %9 = getelementptr inbounds nuw %union.lv_style_value_t, ptr %5, i32 0, i32 0
  store ptr %8, ptr %9, align 8
  %10 = load i32, ptr %5, align 8, !tbaa !24
  call void @llvm.lifetime.end.p0(i64 8, ptr %5) #5
  ret i32 %10
}

; Function Attrs: inlinehint nounwind uwtable
define internal i32 @lv_obj_get_style_border_side(ptr noundef %0, i32 noundef %1) #3 {
  %3 = alloca ptr, align 8
  %4 = alloca i32, align 4
  %5 = alloca %union.lv_style_value_t, align 8
  store ptr %0, ptr %3, align 8, !tbaa !3
  store i32 %1, ptr %4, align 4, !tbaa !7
  call void @llvm.lifetime.start.p0(i64 8, ptr %5) #5
  %6 = load ptr, ptr %3, align 8, !tbaa !3
  %7 = load i32, ptr %4, align 4, !tbaa !7
  %8 = call ptr @lv_obj_get_style_prop(ptr noundef %6, i32 noundef %7, i8 noundef zeroext 52)
  %9 = getelementptr inbounds nuw %union.lv_style_value_t, ptr %5, i32 0, i32 0
  store ptr %8, ptr %9, align 8
  %10 = load i32, ptr %5, align 8, !tbaa !24
  call void @llvm.lifetime.end.p0(i64 8, ptr %5) #5
  ret i32 %10
}

; Function Attrs: inlinehint nounwind uwtable
define internal i32 @lv_obj_get_style_border_width(ptr noundef %0, i32 noundef %1) #3 {
  %3 = alloca ptr, align 8
  %4 = alloca i32, align 4
  %5 = alloca %union.lv_style_value_t, align 8
  store ptr %0, ptr %3, align 8, !tbaa !3
  store i32 %1, ptr %4, align 4, !tbaa !7
  call void @llvm.lifetime.start.p0(i64 8, ptr %5) #5
  %6 = load ptr, ptr %3, align 8, !tbaa !3
  %7 = load i32, ptr %4, align 4, !tbaa !7
  %8 = call ptr @lv_obj_get_style_prop(ptr noundef %6, i32 noundef %7, i8 noundef zeroext 48)
  %9 = getelementptr inbounds nuw %union.lv_style_value_t, ptr %5, i32 0, i32 0
  store ptr %8, ptr %9, align 8
  %10 = load i32, ptr %5, align 8, !tbaa !24
  call void @llvm.lifetime.end.p0(i64 8, ptr %5) #5
  ret i32 %10
}

; Function Attrs: inlinehint nounwind uwtable
define internal i32 @lv_obj_get_style_pad_right(ptr noundef %0, i32 noundef %1) #3 {
  %3 = alloca ptr, align 8
  %4 = alloca i32, align 4
  %5 = alloca %union.lv_style_value_t, align 8
  store ptr %0, ptr %3, align 8, !tbaa !3
  store i32 %1, ptr %4, align 4, !tbaa !7
  call void @llvm.lifetime.start.p0(i64 8, ptr %5) #5
  %6 = load ptr, ptr %3, align 8, !tbaa !3
  %7 = load i32, ptr %4, align 4, !tbaa !7
  %8 = call ptr @lv_obj_get_style_prop(ptr noundef %6, i32 noundef %7, i8 noundef zeroext 19)
  %9 = getelementptr inbounds nuw %union.lv_style_value_t, ptr %5, i32 0, i32 0
  store ptr %8, ptr %9, align 8
  %10 = load i32, ptr %5, align 8, !tbaa !24
  call void @llvm.lifetime.end.p0(i64 8, ptr %5) #5
  ret i32 %10
}

; Function Attrs: nounwind uwtable
define i32 @lv_obj_get_scroll_x(ptr noundef %0) #0 {
  %2 = alloca i32, align 4
  %3 = alloca ptr, align 8
  store ptr %0, ptr %3, align 8, !tbaa !3
  %4 = load ptr, ptr %3, align 8, !tbaa !3
  %5 = getelementptr inbounds nuw %struct._lv_obj_t, ptr %4, i32 0, i32 2
  %6 = load ptr, ptr %5, align 8, !tbaa !9
  %7 = icmp eq ptr %6, null
  br i1 %7, label %8, label %9

8:                                                ; preds = %1
  store i32 0, ptr %2, align 4
  br label %17

9:                                                ; preds = %1
  %10 = load ptr, ptr %3, align 8, !tbaa !3
  %11 = getelementptr inbounds nuw %struct._lv_obj_t, ptr %10, i32 0, i32 2
  %12 = load ptr, ptr %11, align 8, !tbaa !9
  %13 = getelementptr inbounds nuw %struct._lv_obj_spec_attr_t, ptr %12, i32 0, i32 3
  %14 = getelementptr inbounds nuw %struct.lv_point_t, ptr %13, i32 0, i32 0
  %15 = load i32, ptr %14, align 8, !tbaa !13
  %16 = sub nsw i32 0, %15
  store i32 %16, ptr %2, align 4
  br label %17

17:                                               ; preds = %9, %8
  %18 = load i32, ptr %2, align 4
  ret i32 %18
}

; Function Attrs: inlinehint nounwind uwtable
define internal i32 @lv_obj_get_style_space_left(ptr noundef %0, i32 noundef %1) #3 {
  %3 = alloca ptr, align 8
  %4 = alloca i32, align 4
  %5 = alloca i32, align 4
  %6 = alloca i32, align 4
  %7 = alloca i32, align 4
  store ptr %0, ptr %3, align 8, !tbaa !3
  store i32 %1, ptr %4, align 4, !tbaa !7
  call void @llvm.lifetime.start.p0(i64 4, ptr %5) #5
  %8 = load ptr, ptr %3, align 8, !tbaa !3
  %9 = load i32, ptr %4, align 4, !tbaa !7
  %10 = call i32 @lv_obj_get_style_pad_left(ptr noundef %8, i32 noundef %9)
  store i32 %10, ptr %5, align 4, !tbaa !7
  call void @llvm.lifetime.start.p0(i64 4, ptr %6) #5
  %11 = load ptr, ptr %3, align 8, !tbaa !3
  %12 = load i32, ptr %4, align 4, !tbaa !7
  %13 = call i32 @lv_obj_get_style_border_width(ptr noundef %11, i32 noundef %12)
  store i32 %13, ptr %6, align 4, !tbaa !7
  call void @llvm.lifetime.start.p0(i64 4, ptr %7) #5
  %14 = load ptr, ptr %3, align 8, !tbaa !3
  %15 = load i32, ptr %4, align 4, !tbaa !7
  %16 = call i32 @lv_obj_get_style_border_side(ptr noundef %14, i32 noundef %15)
  store i32 %16, ptr %7, align 4, !tbaa !7
  %17 = load i32, ptr %7, align 4, !tbaa !7
  %18 = and i32 %17, 4
  %19 = icmp ne i32 %18, 0
  br i1 %19, label %20, label %24

20:                                               ; preds = %2
  %21 = load i32, ptr %5, align 4, !tbaa !7
  %22 = load i32, ptr %6, align 4, !tbaa !7
  %23 = add nsw i32 %21, %22
  br label %26

24:                                               ; preds = %2
  %25 = load i32, ptr %5, align 4, !tbaa !7
  br label %26

26:                                               ; preds = %24, %20
  %27 = phi i32 [ %23, %20 ], [ %25, %24 ]
  call void @llvm.lifetime.end.p0(i64 4, ptr %7) #5
  call void @llvm.lifetime.end.p0(i64 4, ptr %6) #5
  call void @llvm.lifetime.end.p0(i64 4, ptr %5) #5
  ret i32 %27
}

; Function Attrs: inlinehint nounwind uwtable
define internal i32 @lv_obj_get_style_space_right(ptr noundef %0, i32 noundef %1) #3 {
  %3 = alloca ptr, align 8
  %4 = alloca i32, align 4
  %5 = alloca i32, align 4
  %6 = alloca i32, align 4
  %7 = alloca i32, align 4
  store ptr %0, ptr %3, align 8, !tbaa !3
  store i32 %1, ptr %4, align 4, !tbaa !7
  call void @llvm.lifetime.start.p0(i64 4, ptr %5) #5
  %8 = load ptr, ptr %3, align 8, !tbaa !3
  %9 = load i32, ptr %4, align 4, !tbaa !7
  %10 = call i32 @lv_obj_get_style_pad_right(ptr noundef %8, i32 noundef %9)
  store i32 %10, ptr %5, align 4, !tbaa !7
  call void @llvm.lifetime.start.p0(i64 4, ptr %6) #5
  %11 = load ptr, ptr %3, align 8, !tbaa !3
  %12 = load i32, ptr %4, align 4, !tbaa !7
  %13 = call i32 @lv_obj_get_style_border_width(ptr noundef %11, i32 noundef %12)
  store i32 %13, ptr %6, align 4, !tbaa !7
  call void @llvm.lifetime.start.p0(i64 4, ptr %7) #5
  %14 = load ptr, ptr %3, align 8, !tbaa !3
  %15 = load i32, ptr %4, align 4, !tbaa !7
  %16 = call i32 @lv_obj_get_style_border_side(ptr noundef %14, i32 noundef %15)
  store i32 %16, ptr %7, align 4, !tbaa !7
  %17 = load i32, ptr %7, align 4, !tbaa !7
  %18 = and i32 %17, 8
  %19 = icmp ne i32 %18, 0
  br i1 %19, label %20, label %24

20:                                               ; preds = %2
  %21 = load i32, ptr %5, align 4, !tbaa !7
  %22 = load i32, ptr %6, align 4, !tbaa !7
  %23 = add nsw i32 %21, %22
  br label %26

24:                                               ; preds = %2
  %25 = load i32, ptr %5, align 4, !tbaa !7
  br label %26

26:                                               ; preds = %24, %20
  %27 = phi i32 [ %23, %20 ], [ %25, %24 ]
  call void @llvm.lifetime.end.p0(i64 4, ptr %7) #5
  call void @llvm.lifetime.end.p0(i64 4, ptr %6) #5
  call void @llvm.lifetime.end.p0(i64 4, ptr %5) #5
  ret i32 %27
}

; Function Attrs: inlinehint nounwind uwtable
define internal i32 @lv_obj_get_style_margin_right(ptr noundef %0, i32 noundef %1) #3 {
  %3 = alloca ptr, align 8
  %4 = alloca i32, align 4
  %5 = alloca %union.lv_style_value_t, align 8
  store ptr %0, ptr %3, align 8, !tbaa !3
  store i32 %1, ptr %4, align 4, !tbaa !7
  call void @llvm.lifetime.start.p0(i64 8, ptr %5) #5
  %6 = load ptr, ptr %3, align 8, !tbaa !3
  %7 = load i32, ptr %4, align 4, !tbaa !7
  %8 = call ptr @lv_obj_get_style_prop(ptr noundef %6, i32 noundef %7, i8 noundef zeroext 27)
  %9 = getelementptr inbounds nuw %union.lv_style_value_t, ptr %5, i32 0, i32 0
  store ptr %8, ptr %9, align 8
  %10 = load i32, ptr %5, align 8, !tbaa !24
  call void @llvm.lifetime.end.p0(i64 8, ptr %5) #5
  ret i32 %10
}

; Function Attrs: inlinehint nounwind uwtable
define internal i32 @lv_obj_get_style_base_dir(ptr noundef %0, i32 noundef %1) #3 {
  %3 = alloca ptr, align 8
  %4 = alloca i32, align 4
  %5 = alloca %union.lv_style_value_t, align 8
  store ptr %0, ptr %3, align 8, !tbaa !3
  store i32 %1, ptr %4, align 4, !tbaa !7
  call void @llvm.lifetime.start.p0(i64 8, ptr %5) #5
  %6 = load ptr, ptr %3, align 8, !tbaa !3
  %7 = load i32, ptr %4, align 4, !tbaa !7
  %8 = call ptr @lv_obj_get_style_prop(ptr noundef %6, i32 noundef %7, i8 noundef zeroext 39)
  %9 = getelementptr inbounds nuw %union.lv_style_value_t, ptr %5, i32 0, i32 0
  store ptr %8, ptr %9, align 8
  %10 = load i32, ptr %5, align 8, !tbaa !24
  call void @llvm.lifetime.end.p0(i64 8, ptr %5) #5
  ret i32 %10
}

; Function Attrs: nounwind uwtable
define i32 @lv_obj_get_scroll_right(ptr noundef %0) #0 {
  %2 = alloca i32, align 4
  %3 = alloca ptr, align 8
  %4 = alloca i32, align 4
  %5 = alloca i32, align 4
  %6 = alloca i32, align 4
  %7 = alloca ptr, align 8
  %8 = alloca i32, align 4
  %9 = alloca i32, align 4
  %10 = alloca i32, align 4
  %11 = alloca i32, align 4
  %12 = alloca i32, align 4
  store ptr %0, ptr %3, align 8, !tbaa !3
  br label %13

13:                                               ; preds = %1
  br label %14

14:                                               ; preds = %13
  %15 = load ptr, ptr %3, align 8, !tbaa !3
  %16 = call i32 @lv_obj_get_style_base_dir(ptr noundef %15, i32 noundef 0)
  %17 = icmp eq i32 %16, 1
  br i1 %17, label %18, label %31

18:                                               ; preds = %14
  %19 = load ptr, ptr %3, align 8, !tbaa !3
  %20 = getelementptr inbounds nuw %struct._lv_obj_t, ptr %19, i32 0, i32 2
  %21 = load ptr, ptr %20, align 8, !tbaa !9
  %22 = icmp eq ptr %21, null
  br i1 %22, label %23, label %24

23:                                               ; preds = %18
  store i32 0, ptr %2, align 4
  br label %114

24:                                               ; preds = %18
  %25 = load ptr, ptr %3, align 8, !tbaa !3
  %26 = getelementptr inbounds nuw %struct._lv_obj_t, ptr %25, i32 0, i32 2
  %27 = load ptr, ptr %26, align 8, !tbaa !9
  %28 = getelementptr inbounds nuw %struct._lv_obj_spec_attr_t, ptr %27, i32 0, i32 3
  %29 = getelementptr inbounds nuw %struct.lv_point_t, ptr %28, i32 0, i32 0
  %30 = load i32, ptr %29, align 8, !tbaa !13
  store i32 %30, ptr %2, align 4
  br label %114

31:                                               ; preds = %14
  call void @llvm.lifetime.start.p0(i64 4, ptr %4) #5
  store i32 -536870911, ptr %4, align 4, !tbaa !7
  call void @llvm.lifetime.start.p0(i64 4, ptr %5) #5
  call void @llvm.lifetime.start.p0(i64 4, ptr %6) #5
  %32 = load ptr, ptr %3, align 8, !tbaa !3
  %33 = call i32 @lv_obj_get_child_count(ptr noundef %32)
  store i32 %33, ptr %6, align 4, !tbaa !7
  store i32 0, ptr %5, align 4, !tbaa !7
  br label %34

34:                                               ; preds = %71, %31
  %35 = load i32, ptr %5, align 4, !tbaa !7
  %36 = load i32, ptr %6, align 4, !tbaa !7
  %37 = icmp ult i32 %35, %36
  br i1 %37, label %38, label %74

38:                                               ; preds = %34
  call void @llvm.lifetime.start.p0(i64 8, ptr %7) #5
  %39 = load ptr, ptr %3, align 8, !tbaa !3
  %40 = getelementptr inbounds nuw %struct._lv_obj_t, ptr %39, i32 0, i32 2
  %41 = load ptr, ptr %40, align 8, !tbaa !9
  %42 = getelementptr inbounds nuw %struct._lv_obj_spec_attr_t, ptr %41, i32 0, i32 0
  %43 = load ptr, ptr %42, align 8, !tbaa !20
  %44 = load i32, ptr %5, align 4, !tbaa !7
  %45 = zext i32 %44 to i64
  %46 = getelementptr inbounds nuw ptr, ptr %43, i64 %45
  %47 = load ptr, ptr %46, align 8, !tbaa !3
  store ptr %47, ptr %7, align 8, !tbaa !3
  %48 = load ptr, ptr %7, align 8, !tbaa !3
  %49 = call zeroext i1 @lv_obj_has_flag_any(ptr noundef %48, i32 noundef 262145)
  br i1 %49, label %50, label %51

50:                                               ; preds = %38
  store i32 6, ptr %8, align 4
  br label %68

51:                                               ; preds = %38
  call void @llvm.lifetime.start.p0(i64 4, ptr %9) #5
  %52 = load ptr, ptr %7, align 8, !tbaa !3
  %53 = getelementptr inbounds nuw %struct._lv_obj_t, ptr %52, i32 0, i32 5
  %54 = getelementptr inbounds nuw %struct.lv_area_t, ptr %53, i32 0, i32 2
  %55 = load i32, ptr %54, align 8, !tbaa !27
  %56 = load ptr, ptr %7, align 8, !tbaa !3
  %57 = call i32 @lv_obj_get_style_margin_right(ptr noundef %56, i32 noundef 0)
  %58 = add nsw i32 %55, %57
  store i32 %58, ptr %9, align 4, !tbaa !7
  %59 = load i32, ptr %4, align 4, !tbaa !7
  %60 = load i32, ptr %9, align 4, !tbaa !7
  %61 = icmp sgt i32 %59, %60
  br i1 %61, label %62, label %64

62:                                               ; preds = %51
  %63 = load i32, ptr %4, align 4, !tbaa !7
  br label %66

64:                                               ; preds = %51
  %65 = load i32, ptr %9, align 4, !tbaa !7
  br label %66

66:                                               ; preds = %64, %62
  %67 = phi i32 [ %63, %62 ], [ %65, %64 ]
  store i32 %67, ptr %4, align 4, !tbaa !7
  call void @llvm.lifetime.end.p0(i64 4, ptr %9) #5
  store i32 0, ptr %8, align 4
  br label %68

68:                                               ; preds = %66, %50
  call void @llvm.lifetime.end.p0(i64 8, ptr %7) #5
  %69 = load i32, ptr %8, align 4
  switch i32 %69, label %116 [
    i32 0, label %70
    i32 6, label %71
  ]

70:                                               ; preds = %68
  br label %71

71:                                               ; preds = %70, %68
  %72 = load i32, ptr %5, align 4, !tbaa !7
  %73 = add i32 %72, 1
  store i32 %73, ptr %5, align 4, !tbaa !7
  br label %34, !llvm.loop !28

74:                                               ; preds = %34
  call void @llvm.lifetime.start.p0(i64 4, ptr %10) #5
  %75 = load ptr, ptr %3, align 8, !tbaa !3
  %76 = call i32 @lv_obj_get_style_space_right(ptr noundef %75, i32 noundef 0)
  store i32 %76, ptr %10, align 4, !tbaa !7
  call void @llvm.lifetime.start.p0(i64 4, ptr %11) #5
  %77 = load ptr, ptr %3, align 8, !tbaa !3
  %78 = call i32 @lv_obj_get_style_space_left(ptr noundef %77, i32 noundef 0)
  store i32 %78, ptr %11, align 4, !tbaa !7
  %79 = load i32, ptr %4, align 4, !tbaa !7
  %80 = icmp ne i32 %79, -536870911
  br i1 %80, label %81, label %90

81:                                               ; preds = %74
  %82 = load ptr, ptr %3, align 8, !tbaa !3
  %83 = getelementptr inbounds nuw %struct._lv_obj_t, ptr %82, i32 0, i32 5
  %84 = getelementptr inbounds nuw %struct.lv_area_t, ptr %83, i32 0, i32 2
  %85 = load i32, ptr %84, align 8, !tbaa !27
  %86 = load i32, ptr %10, align 4, !tbaa !7
  %87 = sub nsw i32 %85, %86
  %88 = load i32, ptr %4, align 4, !tbaa !7
  %89 = sub nsw i32 %88, %87
  store i32 %89, ptr %4, align 4, !tbaa !7
  br label %90

90:                                               ; preds = %81, %74
  call void @llvm.lifetime.start.p0(i64 4, ptr %12) #5
  %91 = load ptr, ptr %3, align 8, !tbaa !3
  %92 = call i32 @lv_obj_get_self_width(ptr noundef %91)
  store i32 %92, ptr %12, align 4, !tbaa !7
  %93 = load i32, ptr %12, align 4, !tbaa !7
  %94 = load ptr, ptr %3, align 8, !tbaa !3
  %95 = call i32 @lv_obj_get_width(ptr noundef %94)
  %96 = load i32, ptr %10, align 4, !tbaa !7
  %97 = sub nsw i32 %95, %96
  %98 = load i32, ptr %11, align 4, !tbaa !7
  %99 = sub nsw i32 %97, %98
  %100 = sub nsw i32 %93, %99
  store i32 %100, ptr %12, align 4, !tbaa !7
  %101 = load ptr, ptr %3, align 8, !tbaa !3
  %102 = call i32 @lv_obj_get_scroll_x(ptr noundef %101)
  %103 = load i32, ptr %12, align 4, !tbaa !7
  %104 = sub nsw i32 %103, %102
  store i32 %104, ptr %12, align 4, !tbaa !7
  %105 = load i32, ptr %4, align 4, !tbaa !7
  %106 = load i32, ptr %12, align 4, !tbaa !7
  %107 = icmp sgt i32 %105, %106
  br i1 %107, label %108, label %110

108:                                              ; preds = %90
  %109 = load i32, ptr %4, align 4, !tbaa !7
  br label %112

110:                                              ; preds = %90
  %111 = load i32, ptr %12, align 4, !tbaa !7
  br label %112

112:                                              ; preds = %110, %108
  %113 = phi i32 [ %109, %108 ], [ %111, %110 ]
  store i32 %113, ptr %2, align 4
  store i32 1, ptr %8, align 4
  call void @llvm.lifetime.end.p0(i64 4, ptr %12) #5
  call void @llvm.lifetime.end.p0(i64 4, ptr %11) #5
  call void @llvm.lifetime.end.p0(i64 4, ptr %10) #5
  call void @llvm.lifetime.end.p0(i64 4, ptr %6) #5
  call void @llvm.lifetime.end.p0(i64 4, ptr %5) #5
  call void @llvm.lifetime.end.p0(i64 4, ptr %4) #5
  br label %114

114:                                              ; preds = %112, %24, %23
  %115 = load i32, ptr %2, align 4
  ret i32 %115

116:                                              ; preds = %68
  unreachable
}