; Function Attrs: nounwind uwtable
define i32 @lv_obj_get_scroll_right(ptr noundef %0) local_unnamed_addr #0 {
  %2 = tail call ptr @lv_obj_get_style_prop(ptr noundef %0, i32 noundef 0, i8 noundef zeroext 39) #5
  %3 = ptrtoint ptr %2 to i64
  %4 = and i64 %3, 4294967295
  %5 = icmp eq i64 %4, 1
  br i1 %5, label %6, label %13

6:                                                ; preds = %1
  %7 = getelementptr inbounds nuw i8, ptr %0, i64 16
  %8 = load ptr, ptr %7, align 8, !tbaa !3
  %9 = icmp eq ptr %8, null
  br i1 %9, label %65, label %10

10:                                               ; preds = %6
  %11 = getelementptr inbounds nuw i8, ptr %8, i64 48
  %12 = load i32, ptr %11, align 8, !tbaa !11
  br label %65

13:                                               ; preds = %1
  %14 = tail call i32 @lv_obj_get_child_count(ptr noundef %0) #5
  %.not46 = icmp eq i32 %14, 0
  br i1 %.not46, label %._crit_edge, label %.lr.ph

.lr.ph:                                           ; preds = %13
  %15 = getelementptr inbounds nuw i8, ptr %0, i64 16
  %wide.trip.count = zext i32 %14 to i64
  br label %16

16:                                               ; preds = %.lr.ph, %29
  %indvars.iv = phi i64 [ 0, %.lr.ph ], [ %indvars.iv.next, %29 ]
  %.03345 = phi i32 [ -536870911, %.lr.ph ], [ %.1, %29 ]
  %17 = load ptr, ptr %15, align 8, !tbaa !3
  %18 = load ptr, ptr %17, align 8, !tbaa !18
  %19 = getelementptr inbounds nuw ptr, ptr %18, i64 %indvars.iv
  %20 = load ptr, ptr %19, align 8, !tbaa !19
  %21 = tail call zeroext i1 @lv_obj_has_flag_any(ptr noundef %20, i32 noundef 262145) #5
  br i1 %21, label %29, label %22

22:                                               ; preds = %16
  %23 = getelementptr inbounds nuw i8, ptr %20, i64 48
  %24 = load i32, ptr %23, align 8, !tbaa !25
  %25 = tail call ptr @lv_obj_get_style_prop(ptr noundef %20, i32 noundef 0, i8 noundef zeroext 27) #5
  %26 = ptrtoint ptr %25 to i64
  %.sroa.0.0.extract.trunc.i37 = trunc i64 %26 to i32
  %27 = add nsw i32 %24, %.sroa.0.0.extract.trunc.i37
  %28 = tail call i32 @llvm.smax.i32(i32 %.03345, i32 %27)
  br label %29

29:                                               ; preds = %16, %22
  %.1 = phi i32 [ %28, %22 ], [ %.03345, %16 ]
  %indvars.iv.next = add nuw nsw i64 %indvars.iv, 1
  %exitcond.not = icmp eq i64 %indvars.iv.next, %wide.trip.count
  br i1 %exitcond.not, label %._crit_edge, label %16, !llvm.loop !26

._crit_edge:                                      ; preds = %29, %13
  %.033.lcssa = phi i32 [ -536870911, %13 ], [ %.1, %29 ]
  %30 = tail call ptr @lv_obj_get_style_prop(ptr noundef %0, i32 noundef 0, i8 noundef zeroext 19) #5
  %31 = ptrtoint ptr %30 to i64
  %.sroa.0.0.extract.trunc.i.i = trunc i64 %31 to i32
  %32 = tail call ptr @lv_obj_get_style_prop(ptr noundef %0, i32 noundef 0, i8 noundef zeroext 48) #5
  %33 = ptrtoint ptr %32 to i64
  %.sroa.0.0.extract.trunc.i9.i = trunc i64 %33 to i32
  %34 = tail call ptr @lv_obj_get_style_prop(ptr noundef %0, i32 noundef 0, i8 noundef zeroext 52) #5
  %35 = ptrtoint ptr %34 to i64
  %36 = and i64 %35, 8
  %.not.i = icmp eq i64 %36, 0
  %37 = select i1 %.not.i, i32 0, i32 %.sroa.0.0.extract.trunc.i9.i
  %38 = add nsw i32 %37, %.sroa.0.0.extract.trunc.i.i
  %39 = tail call ptr @lv_obj_get_style_prop(ptr noundef %0, i32 noundef 0, i8 noundef zeroext 18) #5
  %40 = ptrtoint ptr %39 to i64
  %.sroa.0.0.extract.trunc.i.i38 = trunc i64 %40 to i32
  %41 = tail call ptr @lv_obj_get_style_prop(ptr noundef %0, i32 noundef 0, i8 noundef zeroext 48) #5
  %42 = ptrtoint ptr %41 to i64
  %.sroa.0.0.extract.trunc.i9.i39 = trunc i64 %42 to i32
  %43 = tail call ptr @lv_obj_get_style_prop(ptr noundef %0, i32 noundef 0, i8 noundef zeroext 52) #5
  %44 = ptrtoint ptr %43 to i64
  %45 = and i64 %44, 4
  %.not.i40 = icmp eq i64 %45, 0
  %46 = select i1 %.not.i40, i32 0, i32 %.sroa.0.0.extract.trunc.i9.i39
  %.not = icmp eq i32 %.033.lcssa, -536870911
  br i1 %.not, label %51, label %47

47:                                               ; preds = %._crit_edge
  %48 = getelementptr inbounds nuw i8, ptr %0, i64 48
  %49 = load i32, ptr %48, align 8, !tbaa !25
  %.neg = add i32 %38, %.033.lcssa
  %50 = sub i32 %.neg, %49
  br label %51

51:                                               ; preds = %47, %._crit_edge
  %.2 = phi i32 [ %50, %47 ], [ -536870911, %._crit_edge ]
  %52 = tail call i32 @lv_obj_get_self_width(ptr noundef %0) #5
  %53 = tail call i32 @lv_obj_get_width(ptr noundef %0) #5
  %54 = getelementptr inbounds nuw i8, ptr %0, i64 16
  %55 = load ptr, ptr %54, align 8, !tbaa !3
  %56 = icmp eq ptr %55, null
  br i1 %56, label %lv_obj_get_scroll_x.exit, label %57

57:                                               ; preds = %51
  %58 = getelementptr inbounds nuw i8, ptr %55, i64 48
  %59 = load i32, ptr %58, align 8, !tbaa !11
  br label %lv_obj_get_scroll_x.exit

lv_obj_get_scroll_x.exit:                         ; preds = %51, %57
  %.0.i.neg47 = phi i32 [ %59, %57 ], [ 0, %51 ]
  %.neg43 = add i32 %38, %.sroa.0.0.extract.trunc.i.i38
  %60 = add i32 %.neg43, %46
  %61 = add i32 %60, %52
  %62 = sub i32 %61, %53
  %63 = add i32 %62, %.0.i.neg47
  %64 = tail call i32 @llvm.smax.i32(i32 %.2, i32 %63)
  br label %65

65:                                               ; preds = %6, %lv_obj_get_scroll_x.exit, %10
  %.0 = phi i32 [ %12, %10 ], [ %64, %lv_obj_get_scroll_x.exit ], [ 0, %6 ]
  ret i32 %.0
}